Certificate:
    Data:
        Version: 1 (0x0)
        Serial Number: 4097 (0x1001)
        Signature Algorithm: sha256WithRSAEncryption
        Issuer: CN=Interm.
        Validity
            Not Before: Nov  3 00:00:47 2019 GMT
            Not After : Nov  2 00:00:47 2020 GMT
        Subject: CN=1.example.com
        Subject Public Key Info:
            Public Key Algorithm: rsaEncryption
                RSA Public-Key: (2048 bit)
                Modulus:
                    00:d8:d9:00:35:a8:e5:1b:27:b4:ab:d6:2a:50:cf:
                    19:92:77:52:f8:4d:d7:f4:63:5c:d0:f1:68:c0:e4:
                    5f:0a:0d:c7:0e:09:96:48:7b:e0:2a:c1:36:f1:6e:
                    1d:87:12:67:49:7c:53:16:0c:58:22:c1:86:e0:88:
                    ab:ac:4e:6b:ff:31:18:55:0d:c2:87:71:1d:a5:fa:
                    34:c5:d5:2b:70:66:fa:28:3d:c6:5e:67:af:c5:3f:
                    fa:1e:e4:f0:9d:7b:a6:61:32:ee:25:d6:5f:18:d5:
                    50:12:84:ea:35:26:b7:06:53:b7:ed:de:09:1f:ac:
                    f4:8d:11:4e:09:e8:0c:4d:d4:c3:54:a1:cb:eb:20:
                    a8:1c:1f:21:05:35:10:04:37:89:3c:86:b4:42:74:
                    d4:ff:6e:00:82:b5:e4:6c:df:bc:75:9e:38:44:9a:
                    b1:37:13:39:98:a0:a9:c1:8d:d4:e6:ca:85:3b:7c:
                    81:3a:33:63:d8:02:45:2f:d7:dd:42:1c:26:1b:b7:
                    1a:f3:e8:9d:75:ea:51:d6:92:28:f2:13:51:bf:1f:
                    b8:93:3c:4a:43:06:99:33:61:d7:0f:e2:63:0b:30:
                    3d:11:bc:fb:24:e9:c3:31:ee:36:ab:9f:31:af:7e:
                    5f:33:0f:da:00:98:39:74:a5:51:2c:59:e1:e9:c5:
                    76:47
                Exponent: 65537 (0x10001)
    Signature Algorithm: sha256WithRSAEncryption
         1d:63:18:d8:c2:1b:97:c1:13:fe:22:fb:77:68:36:69:84:03:
         12:57:c4:2c:09:8c:5f:11:02:c5:92:5c:eb:16:2c:53:a9:d1:
         29:45:1d:50:1d:6f:a0:6a:12:b5:da:1a:e4:87:a1:80:c4:02:
         1d:cc:2d:c0:3f:15:d5:c6:ae:ab:1a:79:75:98:54:80:9b:1f:
         f8:6a:0f:ef:0d:c6:56:d7:31:c7:a8:40:fc:80:c2:96:54:0a:
         a1:bb:5a:8a:35:0a:6f:6f:40:97:0f:8b:99:97:8d:55:e5:8a:
         eb:6c:da:6a:eb:17:80:ed:f8:2e:5c:9a:9c:e5:47:b6:b8:08:
         f0:51:1d:14:eb:32:66:c5:d5:96:c8:3e:7f:9e:7b:50:e0:87:
         43:8d:34:97:9b:00:36:fd:ea:e9:5d:6c:36:78:40:34:02:8b:
         30:af:7d:25:df:91:48:d9:4c:86:3f:48:14:de:ed:6b:d1:09:
         93:c3:f5:37:6b:04:1e:f9:65:fd:dc:a0:63:93:26:7c:d7:a8:
         d6:e1:e7:98:89:47:df:65:c2:d8:12:12:b7:f7:00:1e:6a:a0:
         17:77:d0:1d:8a:69:21:49:7d:fc:51:cc:7b:d4:e2:e7:f9:6a:
         ed:8a:2b:e2:20:8a:19:68:29:35:5e:5e:0e:20:d6:f8:3a:76:
         b1:e6:7d:97
-----BEGIN CERTIFICATE-----
MIICnzCCAYcCAhABMA0GCSqGSIb3DQEBCwUAMBIxEDAOBgNVBAMMB0ludGVybS4w
HhcNMTkxMTAzMDAwMDQ3WhcNMjAxMTAyMDAwMDQ3WjAYMRYwFAYDVQQDDA0xLmV4
YW1wbGUuY29tMIIBIjANBgkqhkiG9w0BAQEFAAOCAQ8AMIIBCgKCAQEA2NkANajl
Gye0q9YqUM8ZkndS+E3X9GNc0PFowORfCg3HDgmWSHvgKsE28W4dhxJnSXxTFgxY
IsGG4IirrE5r/zEYVQ3Ch3Edpfo0xdUrcGb6KD3GXmevxT/6HuTwnXumYTLuJdZf
GNVQEoTqNSa3BlO37d4JH6z0jRFOCegMTdTDVKHL6yCoHB8hBTUQBDeJPIa0QnTU
/24AgrXkbN+8dZ44RJqxNxM5mKCpwY3U5sqFO3yBOjNj2AJFL9fdQhwmG7ca8+id
depR1pIo8hNRvx+4kzxKQwaZM2HXD+JjCzA9Ebz7JOnDMe42q58xr35fMw/aAJg5
dKVRLFnh6cV2RwIDAQABMA0GCSqGSIb3DQEBCwUAA4IBAQAdYxjYwhuXwRP+Ivt3
aDZphAMSV8QsCYxfEQLFklzrFixTqdEpRR1QHW+gahK12hrkh6GAxAIdzC3APxXV
xq6rGnl1mFSAmx/4ag/vDcZW1zHHqED8gMKWVAqhu1qKNQpvb0CXD4uZl41V5Yrr
bNpq6xeA7fguXJqc5Ue2uAjwUR0U6zJmxdWWyD5/nntQ4IdDjTSXmwA2/erpXWw2
eEA0Aoswr30l35FI2UyGP0gU3u1r0QmTw/U3awQe+WX93KBjkyZ816jW4eeYiUff
ZcLYEhK39wAeaqAXd9AdimkhSX38Ucx71OLn+WrtiiviIIoZaCk1Xl4OINb4Onax
5n2X
-----END CERTIFICATE-----
