Certificate:
    Data:
        Version: 1 (0x0)
        Serial Number: 4098 (0x1002)
        Signature Algorithm: sha256WithRSAEncryption
        Issuer: CN=Interm.
        Validity
            Not Before: Nov  3 00:00:47 2019 GMT
            Not After : Nov  2 00:00:47 2020 GMT
        Subject: CN=2.example.com
        Subject Public Key Info:
            Public Key Algorithm: rsaEncryption
                RSA Public-Key: (2048 bit)
                Modulus:
                    00:c4:a2:ee:d7:1f:a2:78:44:c3:07:58:d3:04:8a:
                    bf:86:ac:0c:a7:7f:c2:69:10:c1:88:b8:cb:34:17:
                    2c:f8:89:7e:9e:58:59:39:2f:ee:87:29:67:2c:f0:
                    8c:10:0a:d8:7e:f5:31:7e:f3:18:f6:45:52:a1:a3:
                    51:e8:40:b5:e8:58:85:52:52:7a:a6:d5:da:97:bc:
                    a9:b3:73:b5:37:5a:28:de:a8:9c:d8:f6:1d:92:5c:
                    f4:3c:2c:53:07:5e:6e:e2:78:0c:31:c7:2a:c0:20:
                    1a:2c:72:b9:81:90:92:dc:f9:0e:1f:4d:24:78:dd:
                    a1:4c:58:38:4a:1a:72:1d:f0:cc:0e:aa:51:f1:3e:
                    d9:1a:cc:d6:3b:4a:92:a8:0f:a6:d0:89:77:a4:05:
                    02:2d:d1:b1:7e:18:b6:61:d9:e8:ec:10:1f:78:ba:
                    23:52:b8:f9:ac:aa:57:05:16:ac:05:9e:41:87:8d:
                    7e:13:4b:6d:ef:26:94:af:86:58:5a:e1:63:09:c1:
                    31:9b:7a:4f:e1:9e:47:30:b6:7e:79:1b:72:1a:c6:
                    f4:fa:35:ad:9e:71:1c:92:fb:93:23:90:9d:58:9b:
                    0a:92:cc:7e:6f:19:02:ff:df:93:c3:1a:ed:8c:c2:
                    c0:a2:3b:39:d9:ee:90:18:8b:0d:e7:73:e2:6a:9d:
                    d4:1f
                Exponent: 65537 (0x10001)
    Signature Algorithm: sha256WithRSAEncryption
         62:5c:a9:f3:b9:f3:3f:7d:06:54:77:ff:8b:39:fc:d8:79:2d:
         34:2d:93:f7:d0:e2:be:87:fa:55:e1:0a:17:b9:6e:e8:b5:eb:
         de:5d:79:03:b1:44:45:c9:4e:1d:be:40:49:ed:23:66:39:61:
         d1:f7:c9:08:d8:8e:18:7e:dd:58:82:04:44:c5:67:ce:a7:3a:
         0d:59:f7:8d:df:c1:15:ab:1a:48:7b:3d:6d:4f:e9:6b:71:70:
         b2:08:1f:5f:4e:98:11:89:f6:29:7b:a5:63:a4:8f:fa:02:1e:
         a5:42:06:75:b8:de:88:d1:13:38:cf:a3:2d:4c:e6:27:d6:94:
         09:14:08:44:82:3b:32:d1:79:80:7f:90:50:26:1a:e0:af:b5:
         9d:f1:80:4c:3b:0c:e5:21:8a:b3:46:d1:bf:b6:09:cf:1c:f5:
         53:cf:43:8d:f3:63:68:50:28:a9:9d:30:b9:9f:aa:9b:2e:f9:
         fb:46:a9:de:85:f0:02:9d:e1:f6:06:82:40:91:40:4c:da:36:
         21:4d:1b:b6:f5:cb:70:0a:f5:94:e0:9e:6f:7b:7f:80:03:e7:
         31:4e:d9:16:e3:a3:bb:c3:6d:51:36:05:53:a6:87:22:b7:6e:
         52:bc:c7:09:e3:c2:85:18:d1:98:e3:26:dd:8d:ce:b0:32:cd:
         c2:7a:df:cc
-----BEGIN CERTIFICATE-----
MIICnzCCAYcCAhACMA0GCSqGSIb3DQEBCwUAMBIxEDAOBgNVBAMMB0ludGVybS4w
HhcNMTkxMTAzMDAwMDQ3WhcNMjAxMTAyMDAwMDQ3WjAYMRYwFAYDVQQDDA0yLmV4
YW1wbGUuY29tMIIBIjANBgkqhkiG9w0BAQEFAAOCAQ8AMIIBCgKCAQEAxKLu1x+i
eETDB1jTBIq/hqwMp3/CaRDBiLjLNBcs+Il+nlhZOS/uhylnLPCMEArYfvUxfvMY
9kVSoaNR6EC16FiFUlJ6ptXal7yps3O1N1oo3qic2PYdklz0PCxTB15u4ngMMccq
wCAaLHK5gZCS3PkOH00keN2hTFg4ShpyHfDMDqpR8T7ZGszWO0qSqA+m0Il3pAUC
LdGxfhi2Ydno7BAfeLojUrj5rKpXBRasBZ5Bh41+E0tt7yaUr4ZYWuFjCcExm3pP
4Z5HMLZ+eRtyGsb0+jWtnnEckvuTI5CdWJsKksx+bxkC/9+TwxrtjMLAojs52e6Q
GIsN53Piap3UHwIDAQABMA0GCSqGSIb3DQEBCwUAA4IBAQBiXKnzufM/fQZUd/+L
OfzYeS00LZP30OK+h/pV4QoXuW7oteveXXkDsURFyU4dvkBJ7SNmOWHR98kI2I4Y
ft1YggRExWfOpzoNWfeN38EVqxpIez1tT+lrcXCyCB9fTpgRifYpe6VjpI/6Ah6l
QgZ1uN6I0RM4z6MtTOYn1pQJFAhEgjsy0XmAf5BQJhrgr7Wd8YBMOwzlIYqzRtG/
tgnPHPVTz0ON82NoUCipnTC5n6qbLvn7RqnehfACneH2BoJAkUBM2jYhTRu29ctw
CvWU4J5ve3+AA+cxTtkW46O7w21RNgVTpocit25SvMcJ48KFGNGY4ybdjc6wMs3C
et/M
-----END CERTIFICATE-----
