Certificate:
    Data:
        Version: 1 (0x0)
        Serial Number: 4099 (0x1003)
        Signature Algorithm: sha256WithRSAEncryption
        Issuer: CN=Interm.
        Validity
            Not Before: Nov  3 00:00:48 2019 GMT
            Not After : Nov  2 00:00:48 2020 GMT
        Subject: CN=3.example.com
        Subject Public Key Info:
            Public Key Algorithm: rsaEncryption
                RSA Public-Key: (2048 bit)
                Modulus:
                    00:ad:5d:c9:b3:16:d1:02:be:17:11:eb:8c:75:1d:
                    34:f1:d1:84:b0:da:ee:ac:04:ce:c8:76:e7:f4:23:
                    27:4e:4c:10:27:11:d4:76:ab:fc:5d:13:01:c6:61:
                    6e:52:f9:9a:e4:8b:aa:70:76:a2:68:0e:81:f4:bc:
                    48:b0:b0:bd:e0:8b:10:ab:82:6d:dc:f1:8f:88:e4:
                    24:d2:c0:cb:69:09:41:bd:67:16:53:5d:dd:d0:58:
                    b0:78:2d:8e:7f:04:15:f6:78:81:3c:17:4b:8c:bd:
                    b6:b0:39:5a:fa:95:bc:b2:00:72:c4:de:76:c1:50:
                    dd:e7:92:8b:df:92:07:87:65:32:5c:ab:6a:d8:8e:
                    03:e9:e2:8d:b0:c3:5a:32:de:b4:fa:dc:72:82:76:
                    a9:9d:c0:74:45:05:ec:16:34:4a:c1:33:92:29:85:
                    3f:23:80:00:bb:77:2e:4e:72:cf:e7:3d:04:4a:54:
                    ad:93:49:1f:1a:d0:17:58:f8:83:fa:a8:20:f1:2a:
                    74:1e:8a:57:26:7f:93:6d:80:41:c6:93:4d:44:fc:
                    11:4c:d9:fe:e3:b6:8a:b3:dc:e1:47:86:e8:23:e7:
                    f6:c8:db:54:bc:89:35:a0:19:2c:e9:c6:73:9d:b2:
                    bb:dd:44:bc:83:06:4e:8e:6e:30:5c:7c:e2:f4:3a:
                    48:dd
                Exponent: 65537 (0x10001)
    Signature Algorithm: sha256WithRSAEncryption
         4b:13:1c:68:07:14:04:2f:e0:58:68:9f:c7:50:c3:cd:fa:1a:
         e9:ae:08:96:13:90:a7:0f:b8:6f:fd:cc:30:50:a6:36:cd:13:
         cc:a6:15:d7:dc:76:65:d4:4b:18:63:36:f9:92:99:af:33:78:
         67:61:ce:97:18:b9:1c:6b:bc:0b:65:fe:c8:dd:5c:c4:d3:73:
         d0:b5:22:dd:51:92:0e:d9:50:3b:11:7f:2f:64:fc:ed:b6:d4:
         50:dc:5b:3d:a7:93:fc:d5:3f:3c:b0:dd:e9:36:f0:22:81:fc:
         97:0a:ec:50:33:6d:ff:a3:b3:fd:36:ef:c7:11:9b:0f:12:ab:
         72:d2:d4:c2:6b:82:55:79:3d:66:4f:66:48:71:2b:d9:46:7b:
         fe:5b:ae:04:5c:28:6d:7f:e1:b5:dc:43:4d:e8:ba:49:3a:58:
         d6:2a:9c:3b:0c:84:ee:48:69:4d:f3:4c:e6:13:14:5b:fd:5b:
         d7:67:c8:13:fe:71:7f:f3:bd:8e:2f:e2:a0:d0:8e:64:c0:4a:
         d9:17:9a:08:68:ac:07:03:cc:20:14:02:9c:e0:32:5f:7b:1a:
         80:70:23:37:25:33:ca:99:77:bf:fe:2e:a5:88:4d:5f:c9:7e:
         56:e4:2d:6d:aa:1f:dd:f8:de:a8:74:da:f8:42:db:dc:db:71:
         73:98:30:2f
-----BEGIN CERTIFICATE-----
MIICnzCCAYcCAhADMA0GCSqGSIb3DQEBCwUAMBIxEDAOBgNVBAMMB0ludGVybS4w
HhcNMTkxMTAzMDAwMDQ4WhcNMjAxMTAyMDAwMDQ4WjAYMRYwFAYDVQQDDA0zLmV4
YW1wbGUuY29tMIIBIjANBgkqhkiG9w0BAQEFAAOCAQ8AMIIBCgKCAQEArV3JsxbR
Ar4XEeuMdR008dGEsNrurATOyHbn9CMnTkwQJxHUdqv8XRMBxmFuUvma5IuqcHai
aA6B9LxIsLC94IsQq4Jt3PGPiOQk0sDLaQlBvWcWU13d0FiweC2OfwQV9niBPBdL
jL22sDla+pW8sgByxN52wVDd55KL35IHh2UyXKtq2I4D6eKNsMNaMt60+txygnap
ncB0RQXsFjRKwTOSKYU/I4AAu3cuTnLP5z0ESlStk0kfGtAXWPiD+qgg8Sp0HopX
Jn+TbYBBxpNNRPwRTNn+47aKs9zhR4boI+f2yNtUvIk1oBks6cZznbK73US8gwZO
jm4wXHzi9DpI3QIDAQABMA0GCSqGSIb3DQEBCwUAA4IBAQBLExxoBxQEL+BYaJ/H
UMPN+hrprgiWE5CnD7hv/cwwUKY2zRPMphXX3HZl1EsYYzb5kpmvM3hnYc6XGLkc
a7wLZf7I3VzE03PQtSLdUZIO2VA7EX8vZPztttRQ3Fs9p5P81T88sN3pNvAigfyX
CuxQM23/o7P9Nu/HEZsPEqty0tTCa4JVeT1mT2ZIcSvZRnv+W64EXChtf+G13ENN
6LpJOljWKpw7DITuSGlN80zmExRb/VvXZ8gT/nF/872OL+Kg0I5kwErZF5oIaKwH
A8wgFAKc4DJfexqAcCM3JTPKmXe//i6liE1fyX5W5C1tqh/d+N6odNr4Qtvc23Fz
mDAv
-----END CERTIFICATE-----
